; Function Attrs: mustprogress uwtable
define dso_local void @_ZN10btSoftBody14releaseClusterEi(ptr noundef nonnull align 8 dereferenceable(2064) %this, i32 noundef %index) local_unnamed_addr #4 align 2 {
entry:
  %m_data.i = getelementptr inbounds i8, ptr %this, i64 1760
  %0 = load ptr, ptr %m_data.i, align 8
  %idxprom.i = sext i32 %index to i64
  %arrayidx.i = getelementptr inbounds ptr, ptr %0, i64 %idxprom.i
  %1 = load ptr, ptr %arrayidx.i, align 8
  %m_leaf = getelementptr inbounds i8, ptr %1, i64 384
  %2 = load ptr, ptr %m_leaf, align 8
  %tobool.not = icmp eq ptr %2, null
  br i1 %tobool.not, label %if.end, label %if.then

if.then:                                          ; preds = %entry
  %m_cdbvt = getelementptr inbounds i8, ptr %this, i64 1680
  tail call void @_ZN6btDbvt6removeEP10btDbvtNode(ptr noundef nonnull align 8 dereferenceable(64) %m_cdbvt, ptr noundef nonnull %2)
  br label %if.end

if.end:                                           ; preds = %if.then, %entry
  tail call void @_ZN10btSoftBody7ClusterD2Ev(ptr noundef nonnull align 8 dereferenceable(424) %1) #39
  tail call void @_Z21btAlignedFreeInternalPv(ptr noundef nonnull %1)
  %m_size.i.i.i = getelementptr inbounds i8, ptr %this, i64 1748
  %3 = load i32, ptr %m_size.i.i.i, align 4
  %cmp5.i.i = icmp sgt i32 %3, 0
  br i1 %cmp5.i.i, label %for.body.lr.ph.i.i, label %_ZN20btAlignedObjectArrayIPN10btSoftBody7ClusterEE6removeERKS2_.exit

for.body.lr.ph.i.i:                               ; preds = %if.end
  %4 = load ptr, ptr %m_data.i, align 8
  %wide.trip.count.i.i = zext nneg i32 %3 to i64
  br label %for.body.i.i

for.body.i.i:                                     ; preds = %for.inc.i.i, %for.body.lr.ph.i.i
  %indvars.iv.i.i = phi i64 [ 0, %for.body.lr.ph.i.i ], [ %indvars.iv.next.i.i, %for.inc.i.i ]
  %arrayidx.i.i = getelementptr inbounds ptr, ptr %4, i64 %indvars.iv.i.i
  %5 = load ptr, ptr %arrayidx.i.i, align 8
  %cmp3.i.i = icmp eq ptr %5, %1
  br i1 %cmp3.i.i, label %_ZNK20btAlignedObjectArrayIPN10btSoftBody7ClusterEE16findLinearSearchERKS2_.exit.i, label %for.inc.i.i

for.inc.i.i:                                      ; preds = %for.body.i.i
  %indvars.iv.next.i.i = add nuw nsw i64 %indvars.iv.i.i, 1
  %exitcond.not.i.i = icmp eq i64 %indvars.iv.next.i.i, %wide.trip.count.i.i
  br i1 %exitcond.not.i.i, label %_ZN20btAlignedObjectArrayIPN10btSoftBody7ClusterEE6removeERKS2_.exit, label %for.body.i.i, !llvm.loop !27

_ZNK20btAlignedObjectArrayIPN10btSoftBody7ClusterEE16findLinearSearchERKS2_.exit.i: ; preds = %for.body.i.i
  %6 = trunc i64 %indvars.iv.i.i to i32
  %cmp.i.i = icmp sgt i32 %3, %6
  br i1 %cmp.i.i, label %if.then.i.i, label %_ZN20btAlignedObjectArrayIPN10btSoftBody7ClusterEE6removeERKS2_.exit

if.then.i.i:                                      ; preds = %_ZNK20btAlignedObjectArrayIPN10btSoftBody7ClusterEE16findLinearSearchERKS2_.exit.i
  %sub.i.i = add nsw i32 %3, -1
  %sext.i = shl i64 %indvars.iv.i.i, 32
  %idxprom.i.i.i = ashr exact i64 %sext.i, 32
  %arrayidx.i.i.i = getelementptr inbounds ptr, ptr %4, i64 %idxprom.i.i.i
  %7 = load ptr, ptr %arrayidx.i.i.i, align 8
  %idxprom3.i.i.i = sext i32 %sub.i.i to i64
  %arrayidx4.i.i.i = getelementptr inbounds ptr, ptr %4, i64 %idxprom3.i.i.i
  %8 = load ptr, ptr %arrayidx4.i.i.i, align 8
  store ptr %8, ptr %arrayidx.i.i.i, align 8
  %9 = load ptr, ptr %m_data.i, align 8
  %arrayidx10.i.i.i = getelementptr inbounds ptr, ptr %9, i64 %idxprom3.i.i.i
  store ptr %7, ptr %arrayidx10.i.i.i, align 8
  %10 = load i32, ptr %m_size.i.i.i, align 4
  %dec.i.i.i = add nsw i32 %10, -1
  store i32 %dec.i.i.i, ptr %m_size.i.i.i, align 4
  br label %_ZN20btAlignedObjectArrayIPN10btSoftBody7ClusterEE6removeERKS2_.exit

_ZN20btAlignedObjectArrayIPN10btSoftBody7ClusterEE6removeERKS2_.exit: ; preds = %for.inc.i.i, %if.end, %_ZNK20btAlignedObjectArrayIPN10btSoftBody7ClusterEE16findLinearSearchERKS2_.exit.i, %if.then.i.i
  ret void
}